target datalayout = "e-m:e-p270:32:32-p271:32:32-p272:64:64-i64:64-i128:128-f80:128-n8:16:32:64-S128"
target triple = "x86_64-pc-linux-gnu"

%struct.Vec_Ptr_t_ = type { i32, i32, ptr }

; Function Attrs: inlinehint nounwind uwtable
define internal i32 @Vec_PtrSize(ptr noundef %0) #2 {
  %2 = alloca ptr, align 8
  store ptr %0, ptr %2, align 8, !tbaa !39
  %3 = load ptr, ptr %2, align 8, !tbaa !39
  %4 = getelementptr inbounds nuw %struct.Vec_Ptr_t_, ptr %3, i32 0, i32 1
  %5 = load i32, ptr %4, align 4, !tbaa !42
  ret i32 %5
}

; Function Attrs: inlinehint nounwind uwtable
define internal ptr @Vec_PtrEntry(ptr noundef %0, i32 noundef %1) #2 {
  %3 = alloca ptr, align 8
  %4 = alloca i32, align 4
  store ptr %0, ptr %3, align 8, !tbaa !39
  store i32 %1, ptr %4, align 4, !tbaa !36
  %5 = load ptr, ptr %3, align 8, !tbaa !39
  %6 = getelementptr inbounds nuw %struct.Vec_Ptr_t_, ptr %5, i32 0, i32 2
  %7 = load ptr, ptr %6, align 8, !tbaa !33
  %8 = load i32, ptr %4, align 4, !tbaa !36
  %9 = sext i32 %8 to i64
  %10 = getelementptr inbounds ptr, ptr %7, i64 %9
  %11 = load ptr, ptr %10, align 8, !tbaa !37
  ret ptr %11
}

; Function Attrs: nounwind uwtable
define i32 @Ptr_ManCountNtk(ptr noundef %0) #0 {
  %2 = alloca ptr, align 8
  %3 = alloca ptr, align 8
  %4 = alloca ptr, align 8
  %5 = alloca ptr, align 8
  %6 = alloca ptr, align 8
  %7 = alloca ptr, align 8
  %8 = alloca i32, align 4
  %9 = alloca i32, align 4
  store ptr %0, ptr %2, align 8, !tbaa !39
  call void @llvm.lifetime.start.p0(i64 8, ptr %3) #11
  %10 = load ptr, ptr %2, align 8, !tbaa !39
  %11 = call ptr @Vec_PtrEntry(ptr noundef %10, i32 noundef 1)
  store ptr %11, ptr %3, align 8, !tbaa !39
  call void @llvm.lifetime.start.p0(i64 8, ptr %4) #11
  %12 = load ptr, ptr %2, align 8, !tbaa !39
  %13 = call ptr @Vec_PtrEntry(ptr noundef %12, i32 noundef 2)
  store ptr %13, ptr %4, align 8, !tbaa !39
  call void @llvm.lifetime.start.p0(i64 8, ptr %5) #11
  %14 = load ptr, ptr %2, align 8, !tbaa !39
  %15 = call ptr @Vec_PtrEntry(ptr noundef %14, i32 noundef 3)
  store ptr %15, ptr %5, align 8, !tbaa !39
  call void @llvm.lifetime.start.p0(i64 8, ptr %6) #11
  %16 = load ptr, ptr %2, align 8, !tbaa !39
  %17 = call ptr @Vec_PtrEntry(ptr noundef %16, i32 noundef 4)
  store ptr %17, ptr %6, align 8, !tbaa !39
  call void @llvm.lifetime.start.p0(i64 8, ptr %7) #11
  call void @llvm.lifetime.start.p0(i64 4, ptr %8) #11
  call void @llvm.lifetime.start.p0(i64 4, ptr %9) #11
  store i32 0, ptr %9, align 4, !tbaa !36
  %18 = load ptr, ptr %3, align 8, !tbaa !39
  %19 = call i32 @Vec_PtrSize(ptr noundef %18)
  %20 = load i32, ptr %9, align 4, !tbaa !36
  %21 = add nsw i32 %20, %19
  store i32 %21, ptr %9, align 4, !tbaa !36
  %22 = load ptr, ptr %4, align 8, !tbaa !39
  %23 = call i32 @Vec_PtrSize(ptr noundef %22)
  %24 = load i32, ptr %9, align 4, !tbaa !36
  %25 = add nsw i32 %24, %23
  store i32 %25, ptr %9, align 4, !tbaa !36
  store i32 0, ptr %8, align 4, !tbaa !36
  br label %26

26:                                               ; preds = %43, %1
  %27 = load i32, ptr %8, align 4, !tbaa !36
  %28 = load ptr, ptr %6, align 8, !tbaa !39
  %29 = call i32 @Vec_PtrSize(ptr noundef %28)
  %30 = icmp slt i32 %27, %29
  br i1 %30, label %31, label %35

31:                                               ; preds = %26
  %32 = load ptr, ptr %6, align 8, !tbaa !39
  %33 = load i32, ptr %8, align 4, !tbaa !36
  %34 = call ptr @Vec_PtrEntry(ptr noundef %32, i32 noundef %33)
  store ptr %34, ptr %7, align 8, !tbaa !39
  br label %35

35:                                               ; preds = %31, %26
  %36 = phi i1 [ false, %26 ], [ true, %31 ]
  br i1 %36, label %37, label %46

37:                                               ; preds = %35
  %38 = load ptr, ptr %7, align 8, !tbaa !39
  %39 = call i32 @Vec_PtrSize(ptr noundef %38)
  %40 = sdiv i32 %39, 2
  %41 = load i32, ptr %9, align 4, !tbaa !36
  %42 = add nsw i32 %41, %40
  store i32 %42, ptr %9, align 4, !tbaa !36
  br label %43

43:                                               ; preds = %37
  %44 = load i32, ptr %8, align 4, !tbaa !36
  %45 = add nsw i32 %44, 1
  store i32 %45, ptr %8, align 4, !tbaa !36
  br label %26, !llvm.loop !64

46:                                               ; preds = %35
  %47 = load i32, ptr %9, align 4, !tbaa !36
  call void @llvm.lifetime.end.p0(i64 4, ptr %9) #11
  call void @llvm.lifetime.end.p0(i64 4, ptr %8) #11
  call void @llvm.lifetime.end.p0(i64 8, ptr %7) #11
  call void @llvm.lifetime.end.p0(i64 8, ptr %6) #11
  call void @llvm.lifetime.end.p0(i64 8, ptr %5) #11
  call void @llvm.lifetime.end.p0(i64 8, ptr %4) #11
  call void @llvm.lifetime.end.p0(i64 8, ptr %3) #11
  ret i32 %47
}