; Function Attrs: nofree norecurse nosync nounwind memory(read, inaccessiblemem: none) uwtable
define i32 @Ptr_ManCountNtk(ptr noundef readonly captures(none) %0) local_unnamed_addr #4 {
  %2 = getelementptr i8, ptr %0, i64 8
  %.val19 = load ptr, ptr %2, align 8, !tbaa !32
  %3 = getelementptr inbounds nuw i8, ptr %.val19, i64 8
  %4 = load ptr, ptr %3, align 8, !tbaa !34
  %5 = getelementptr inbounds nuw i8, ptr %.val19, i64 16
  %6 = load ptr, ptr %5, align 8, !tbaa !34
  %7 = getelementptr inbounds nuw i8, ptr %.val19, i64 32
  %8 = load ptr, ptr %7, align 8, !tbaa !34
  %9 = getelementptr i8, ptr %4, i64 4
  %.val23 = load i32, ptr %9, align 4, !tbaa !35
  %10 = getelementptr i8, ptr %6, i64 4
  %.val22 = load i32, ptr %10, align 4, !tbaa !35
  %11 = add nsw i32 %.val22, %.val23
  %12 = getelementptr i8, ptr %8, i64 4
  %.val21 = load i32, ptr %12, align 4, !tbaa !35
  %13 = icmp sgt i32 %.val21, 0
  br i1 %13, label %.lr.ph, label %.critedge

.lr.ph:                                           ; preds = %1
  %14 = getelementptr i8, ptr %8, i64 8
  %.val = load ptr, ptr %14, align 8, !tbaa !32
  %wide.trip.count = zext nneg i32 %.val21 to i64
  br label %15

15:                                               ; preds = %.lr.ph, %15
  %indvars.iv = phi i64 [ 0, %.lr.ph ], [ %indvars.iv.next, %15 ]
  %.025 = phi i32 [ %11, %.lr.ph ], [ %20, %15 ]
  %16 = getelementptr inbounds nuw ptr, ptr %.val, i64 %indvars.iv
  %17 = load ptr, ptr %16, align 8, !tbaa !34
  %18 = getelementptr i8, ptr %17, i64 4
  %.val20 = load i32, ptr %18, align 4, !tbaa !35
  %19 = sdiv i32 %.val20, 2
  %20 = add nsw i32 %19, %.025
  %indvars.iv.next = add nuw nsw i64 %indvars.iv, 1
  %exitcond.not = icmp eq i64 %indvars.iv.next, %wide.trip.count
  br i1 %exitcond.not, label %.critedge, label %15, !llvm.loop !63

.critedge:                                        ; preds = %15, %1
  %.0.lcssa = phi i32 [ %11, %1 ], [ %20, %15 ]
  ret i32 %.0.lcssa
}